target datalayout = "e-m:e-p270:32:32-p271:32:32-p272:64:64-i64:64-i128:128-f80:128-n8:16:32:64-S128"
target triple = "x86_64-pc-linux-gnu"

%"class.clang::sema::DelayedDiagnostic" = type { i8, i8, %"class.clang::SourceLocation", %union.anon }
%"class.clang::SourceLocation" = type { i32 }
%union.anon = type { %"struct.clang::sema::DelayedDiagnostic::AD" }
%"struct.clang::sema::DelayedDiagnostic::AD" = type { ptr, ptr, ptr, ptr, ptr, i64, ptr, i64, i32, i8 }
%"class.llvm::StringRef" = type { ptr, i64 }
%"class.llvm::ArrayRef" = type { ptr, i64 }

; Function Attrs: mustprogress nounwind uwtable
define linkonce_odr hidden noundef ptr @_ZNK4llvm8ArrayRefIN5clang14SourceLocationEE4dataEv(ptr noundef nonnull align 8 dereferenceable(16) %0) #0 comdat align 2 {
  %2 = alloca ptr, align 8
  store ptr %0, ptr %2, align 8
  %3 = load ptr, ptr %2, align 8
  %4 = getelementptr inbounds nuw %"class.llvm::ArrayRef", ptr %3, i32 0, i32 0
  %5 = load ptr, ptr %4, align 8
  ret ptr %5
}

; Function Attrs: mustprogress nounwind uwtable
define linkonce_odr hidden void @_ZN5clang14SourceLocationC2Ev(ptr noundef nonnull align 4 dereferenceable(4) %0) unnamed_addr #0 comdat align 2 {
  %2 = alloca ptr, align 8
  store ptr %0, ptr %2, align 8
  %3 = load ptr, ptr %2, align 8
  %4 = getelementptr inbounds nuw %"class.clang::SourceLocation", ptr %3, i32 0, i32 0
  store i32 0, ptr %4, align 4
  ret void
}

; Function Attrs: mustprogress nounwind uwtable
define linkonce_odr hidden noundef i64 @_ZNK4llvm8ArrayRefIN5clang14SourceLocationEE4sizeEv(ptr noundef nonnull align 8 dereferenceable(16) %0) #0 comdat align 2 {
  %2 = alloca ptr, align 8
  store ptr %0, ptr %2, align 8
  %3 = load ptr, ptr %2, align 8
  %4 = getelementptr inbounds nuw %"class.llvm::ArrayRef", ptr %3, i32 0, i32 1
  %5 = load i64, ptr %4, align 8
  ret i64 %5
}

; Function Attrs: mustprogress nounwind uwtable
define linkonce_odr hidden noundef ptr @_ZNK4llvm9StringRef4dataEv(ptr noundef nonnull align 8 dereferenceable(16) %0) #0 comdat align 2 {
  %2 = alloca ptr, align 8
  store ptr %0, ptr %2, align 8
  %3 = load ptr, ptr %2, align 8
  %4 = getelementptr inbounds nuw %"class.llvm::StringRef", ptr %3, i32 0, i32 0
  %5 = load ptr, ptr %4, align 8
  ret ptr %5
}

; Function Attrs: mustprogress nounwind uwtable
define linkonce_odr hidden noundef i64 @_ZNK4llvm9StringRef4sizeEv(ptr noundef nonnull align 8 dereferenceable(16) %0) #0 comdat align 2 {
  %2 = alloca ptr, align 8
  store ptr %0, ptr %2, align 8
  %3 = load ptr, ptr %2, align 8
  %4 = getelementptr inbounds nuw %"class.llvm::StringRef", ptr %3, i32 0, i32 1
  %5 = load i64, ptr %4, align 8
  ret i64 %5
}

; Function Attrs: mustprogress nounwind uwtable
define linkonce_odr hidden noundef zeroext i1 @_ZNK4llvm9StringRef5emptyEv(ptr noundef nonnull align 8 dereferenceable(16) %0) #0 comdat align 2 {
  %2 = alloca ptr, align 8
  store ptr %0, ptr %2, align 8
  %3 = load ptr, ptr %2, align 8
  %4 = getelementptr inbounds nuw %"class.llvm::StringRef", ptr %3, i32 0, i32 1
  %5 = load i64, ptr %4, align 8
  %6 = icmp eq i64 %5, 0
  ret i1 %6
}

; Function Attrs: mustprogress nounwind uwtable
define linkonce_odr hidden noundef nonnull align 4 dereferenceable(4) ptr @_ZNK4llvm8ArrayRefIN5clang14SourceLocationEE5frontEv(ptr noundef nonnull align 8 dereferenceable(16) %0) #0 comdat align 2 {
  %2 = alloca ptr, align 8
  store ptr %0, ptr %2, align 8
  %3 = load ptr, ptr %2, align 8
  %4 = getelementptr inbounds nuw %"class.llvm::ArrayRef", ptr %3, i32 0, i32 0
  %5 = load ptr, ptr %4, align 8
  %6 = getelementptr inbounds %"class.clang::SourceLocation", ptr %5, i64 0
  ret ptr %6
}

; Function Attrs: mustprogress nounwind uwtable
define linkonce_odr hidden void @_ZN5clang4sema17DelayedDiagnosticC2Ev(ptr noundef nonnull align 8 dereferenceable(80) %0) unnamed_addr #0 comdat align 2 {
  %2 = alloca ptr, align 8
  store ptr %0, ptr %2, align 8
  %3 = load ptr, ptr %2, align 8
  %4 = getelementptr inbounds nuw %"class.clang::sema::DelayedDiagnostic", ptr %3, i32 0, i32 2
  call void @_ZN5clang14SourceLocationC2Ev(ptr noundef nonnull align 4 dereferenceable(4) %4) #7
  ret void
}

; Function Attrs: mustprogress nounwind uwtable
define dso_local void @_ZN5clang4sema17DelayedDiagnostic16makeAvailabilityENS_18AvailabilityResultEN4llvm8ArrayRefINS_14SourceLocationEEEPKNS_9NamedDeclES9_PKNS_17ObjCInterfaceDeclEPKNS_16ObjCPropertyDeclENS3_9StringRefEb(ptr dead_on_unwind noalias writable sret(%"class.clang::sema::DelayedDiagnostic") align 8 %0, i32 noundef %1, ptr %2, i64 %3, ptr noundef %4, ptr noundef %5, ptr noundef %6, ptr noundef %7, ptr noundef byval(%"class.llvm::StringRef") align 8 %8, i1 noundef zeroext %9) #0 align 2 {
  %11 = alloca %"class.llvm::ArrayRef", align 8
  %12 = alloca i32, align 4
  %13 = alloca ptr, align 8
  %14 = alloca ptr, align 8
  %15 = alloca ptr, align 8
  %16 = alloca ptr, align 8
  %17 = alloca i8, align 1
  %18 = alloca ptr, align 8
  %19 = getelementptr inbounds nuw { ptr, i64 }, ptr %11, i32 0, i32 0
  store ptr %2, ptr %19, align 8
  %20 = getelementptr inbounds nuw { ptr, i64 }, ptr %11, i32 0, i32 1
  store i64 %3, ptr %20, align 8
  store i32 %1, ptr %12, align 4
  store ptr %4, ptr %13, align 8
  store ptr %5, ptr %14, align 8
  store ptr %6, ptr %15, align 8
  store ptr %7, ptr %16, align 8
  %21 = zext i1 %9 to i8
  store i8 %21, ptr %17, align 1
  call void @_ZN5clang4sema17DelayedDiagnosticC2Ev(ptr noundef nonnull align 8 dereferenceable(80) %0) #7
  %22 = getelementptr inbounds nuw %"class.clang::sema::DelayedDiagnostic", ptr %0, i32 0, i32 0
  store i8 0, ptr %22, align 8
  %23 = getelementptr inbounds nuw %"class.clang::sema::DelayedDiagnostic", ptr %0, i32 0, i32 1
  store i8 0, ptr %23, align 1
  %24 = call noundef nonnull align 4 dereferenceable(4) ptr @_ZNK4llvm8ArrayRefIN5clang14SourceLocationEE5frontEv(ptr noundef nonnull align 8 dereferenceable(16) %11)
  %25 = getelementptr inbounds nuw %"class.clang::sema::DelayedDiagnostic", ptr %0, i32 0, i32 2
  call void @llvm.memcpy.p0.p0.i64(ptr align 4 %25, ptr align 4 %24, i64 4, i1 false)
  %26 = load ptr, ptr %13, align 8
  %27 = getelementptr inbounds nuw %"class.clang::sema::DelayedDiagnostic", ptr %0, i32 0, i32 3
  %28 = getelementptr inbounds nuw %"struct.clang::sema::DelayedDiagnostic::AD", ptr %27, i32 0, i32 0
  store ptr %26, ptr %28, align 8
  %29 = load ptr, ptr %14, align 8
  %30 = getelementptr inbounds nuw %"class.clang::sema::DelayedDiagnostic", ptr %0, i32 0, i32 3
  %31 = getelementptr inbounds nuw %"struct.clang::sema::DelayedDiagnostic::AD", ptr %30, i32 0, i32 1
  store ptr %29, ptr %31, align 8
  %32 = load ptr, ptr %15, align 8
  %33 = getelementptr inbounds nuw %"class.clang::sema::DelayedDiagnostic", ptr %0, i32 0, i32 3
  %34 = getelementptr inbounds nuw %"struct.clang::sema::DelayedDiagnostic::AD", ptr %33, i32 0, i32 2
  store ptr %32, ptr %34, align 8
  %35 = load ptr, ptr %16, align 8
  %36 = getelementptr inbounds nuw %"class.clang::sema::DelayedDiagnostic", ptr %0, i32 0, i32 3
  %37 = getelementptr inbounds nuw %"struct.clang::sema::DelayedDiagnostic::AD", ptr %36, i32 0, i32 3
  store ptr %35, ptr %37, align 8
  store ptr null, ptr %18, align 8
  %38 = call noundef zeroext i1 @_ZNK4llvm9StringRef5emptyEv(ptr noundef nonnull align 8 dereferenceable(16) %8)
  br i1 %38, label %45, label %39

39:                                               ; preds = %10
  %40 = call noundef i64 @_ZNK4llvm9StringRef4sizeEv(ptr noundef nonnull align 8 dereferenceable(16) %8)
  %41 = call noalias noundef nonnull ptr @_Znam(i64 noundef %40) #8
  store ptr %41, ptr %18, align 8
  %42 = load ptr, ptr %18, align 8
  %43 = call noundef ptr @_ZNK4llvm9StringRef4dataEv(ptr noundef nonnull align 8 dereferenceable(16) %8)
  %44 = call noundef i64 @_ZNK4llvm9StringRef4sizeEv(ptr noundef nonnull align 8 dereferenceable(16) %8)
  call void @llvm.memcpy.p0.p0.i64(ptr align 1 %42, ptr align 1 %43, i64 %44, i1 false)
  br label %45

45:                                               ; preds = %39, %10
  %46 = load ptr, ptr %18, align 8
  %47 = getelementptr inbounds nuw %"class.clang::sema::DelayedDiagnostic", ptr %0, i32 0, i32 3
  %48 = getelementptr inbounds nuw %"struct.clang::sema::DelayedDiagnostic::AD", ptr %47, i32 0, i32 4
  store ptr %46, ptr %48, align 8
  %49 = call noundef i64 @_ZNK4llvm9StringRef4sizeEv(ptr noundef nonnull align 8 dereferenceable(16) %8)
  %50 = getelementptr inbounds nuw %"class.clang::sema::DelayedDiagnostic", ptr %0, i32 0, i32 3
  %51 = getelementptr inbounds nuw %"struct.clang::sema::DelayedDiagnostic::AD", ptr %50, i32 0, i32 5
  store i64 %49, ptr %51, align 8
  %52 = call noundef i64 @_ZNK4llvm8ArrayRefIN5clang14SourceLocationEE4sizeEv(ptr noundef nonnull align 8 dereferenceable(16) %11)
  %53 = call { i64, i1 } @llvm.umul.with.overflow.i64(i64 %52, i64 4)
  %54 = extractvalue { i64, i1 } %53, 1
  %55 = extractvalue { i64, i1 } %53, 0
  %56 = select i1 %54, i64 -1, i64 %55
  %57 = call noalias noundef nonnull ptr @_Znam(i64 noundef %56) #8
  %58 = icmp eq i64 %52, 0
  br i1 %58, label %65, label %59

59:                                               ; preds = %45
  %60 = getelementptr inbounds %"class.clang::SourceLocation", ptr %57, i64 %52
  br label %61

61:                                               ; preds = %61, %59
  %62 = phi ptr [ %57, %59 ], [ %63, %61 ]
  call void @_ZN5clang14SourceLocationC2Ev(ptr noundef nonnull align 4 dereferenceable(4) %62) #7
  %63 = getelementptr inbounds %"class.clang::SourceLocation", ptr %62, i64 1
  %64 = icmp eq ptr %63, %60
  br i1 %64, label %65, label %61

65:                                               ; preds = %61, %45
  %66 = getelementptr inbounds nuw %"class.clang::sema::DelayedDiagnostic", ptr %0, i32 0, i32 3
  %67 = getelementptr inbounds nuw %"struct.clang::sema::DelayedDiagnostic::AD", ptr %66, i32 0, i32 6
  store ptr %57, ptr %67, align 8
  %68 = getelementptr inbounds nuw %"class.clang::sema::DelayedDiagnostic", ptr %0, i32 0, i32 3
  %69 = getelementptr inbounds nuw %"struct.clang::sema::DelayedDiagnostic::AD", ptr %68, i32 0, i32 6
  %70 = load ptr, ptr %69, align 8
  %71 = call noundef ptr @_ZNK4llvm8ArrayRefIN5clang14SourceLocationEE4dataEv(ptr noundef nonnull align 8 dereferenceable(16) %11)
  %72 = call noundef i64 @_ZNK4llvm8ArrayRefIN5clang14SourceLocationEE4sizeEv(ptr noundef nonnull align 8 dereferenceable(16) %11)
  %73 = mul i64 4, %72
  call void @llvm.memcpy.p0.p0.i64(ptr align 4 %70, ptr align 4 %71, i64 %73, i1 false)
  %74 = call noundef i64 @_ZNK4llvm8ArrayRefIN5clang14SourceLocationEE4sizeEv(ptr noundef nonnull align 8 dereferenceable(16) %11)
  %75 = getelementptr inbounds nuw %"class.clang::sema::DelayedDiagnostic", ptr %0, i32 0, i32 3
  %76 = getelementptr inbounds nuw %"struct.clang::sema::DelayedDiagnostic::AD", ptr %75, i32 0, i32 7
  store i64 %74, ptr %76, align 8
  %77 = load i32, ptr %12, align 4
  %78 = getelementptr inbounds nuw %"class.clang::sema::DelayedDiagnostic", ptr %0, i32 0, i32 3
  %79 = getelementptr inbounds nuw %"struct.clang::sema::DelayedDiagnostic::AD", ptr %78, i32 0, i32 8
  store i32 %77, ptr %79, align 8
  %80 = load i8, ptr %17, align 1
  %81 = trunc i8 %80 to i1
  %82 = getelementptr inbounds nuw %"class.clang::sema::DelayedDiagnostic", ptr %0, i32 0, i32 3
  %83 = getelementptr inbounds nuw %"struct.clang::sema::DelayedDiagnostic::AD", ptr %82, i32 0, i32 9
  %84 = zext i1 %81 to i8
  store i8 %84, ptr %83, align 4
  ret void
}