; Function Attrs: mustprogress nounwind uwtable
define dso_local void @_ZN5clang4sema17DelayedDiagnostic16makeAvailabilityENS_18AvailabilityResultEN4llvm8ArrayRefINS_14SourceLocationEEEPKNS_9NamedDeclES9_PKNS_17ObjCInterfaceDeclEPKNS_16ObjCPropertyDeclENS3_9StringRefEb(ptr dead_on_unwind noalias nocapture writable writeonly sret(%"class.clang::sema::DelayedDiagnostic") align 8 %0, i32 noundef %1, ptr nocapture readonly %2, i64 %3, ptr noundef %4, ptr noundef %5, ptr noundef %6, ptr noundef %7, ptr nocapture noundef readonly byval(%"class.llvm::StringRef") align 8 %8, i1 noundef zeroext %9) local_unnamed_addr #0 align 2 {
  %11 = getelementptr inbounds nuw i8, ptr %0, i64 4
  store i8 0, ptr %0, align 8
  %12 = getelementptr inbounds nuw i8, ptr %0, i64 1
  store i8 0, ptr %12, align 1
  %13 = load i32, ptr %2, align 4
  store i32 %13, ptr %11, align 4
  %14 = getelementptr inbounds nuw i8, ptr %0, i64 8
  store ptr %4, ptr %14, align 8
  %15 = getelementptr inbounds i8, ptr %0, i64 16
  store ptr %5, ptr %15, align 8
  %16 = getelementptr inbounds i8, ptr %0, i64 24
  store ptr %6, ptr %16, align 8
  %17 = getelementptr inbounds i8, ptr %0, i64 32
  store ptr %7, ptr %17, align 8
  %18 = getelementptr inbounds nuw i8, ptr %8, i64 8
  %19 = load i64, ptr %18, align 8
  %20 = icmp eq i64 %19, 0
  br i1 %20, label %.loopexit, label %21

21:                                               ; preds = %10
  %22 = tail call noalias noundef nonnull ptr @_Znam(i64 noundef %19) #7
  %23 = load ptr, ptr %8, align 8
  tail call void @llvm.memcpy.p0.p0.i64(ptr nonnull align 1 %22, ptr align 1 %23, i64 %19, i1 false)
  br label %.loopexit

.loopexit:                                        ; preds = %21, %10
  %.0 = phi ptr [ null, %10 ], [ %22, %21 ]
  %24 = getelementptr inbounds i8, ptr %0, i64 40
  store ptr %.0, ptr %24, align 8
  %25 = getelementptr inbounds i8, ptr %0, i64 48
  store i64 %19, ptr %25, align 8
  %26 = icmp ugt i64 %3, 4611686018427387903
  %27 = shl i64 %3, 2
  %28 = select i1 %26, i64 -1, i64 %27
  %29 = tail call noalias noundef nonnull ptr @_Znam(i64 noundef %28) #7
  %30 = zext i1 %9 to i8
  %31 = getelementptr inbounds i8, ptr %0, i64 56
  store ptr %29, ptr %31, align 8
  tail call void @llvm.memcpy.p0.p0.i64(ptr nonnull align 4 %29, ptr nonnull align 4 %2, i64 %27, i1 false)
  %32 = getelementptr inbounds i8, ptr %0, i64 64
  store i64 %3, ptr %32, align 8
  %33 = getelementptr inbounds i8, ptr %0, i64 72
  store i32 %1, ptr %33, align 8
  %34 = getelementptr inbounds i8, ptr %0, i64 76
  store i8 %30, ptr %34, align 4
  ret void
}